target datalayout = "e-m:e-p270:32:32-p271:32:32-p272:64:64-i64:64-i128:128-f80:128-n8:16:32:64-S128"
target triple = "x86_64-pc-linux-gnu"

@bio_err = external global ptr, align 8
@.str.334 = private unnamed_addr constant [22 x i8] c"parameter error \22%s\22\0A\00", align 1

; Function Attrs: inlinehint nounwind uwtable
define internal ptr @ossl_check_const_OPENSSL_STRING_sk_type(ptr noundef %0) #3 {
  %2 = alloca ptr, align 8
  store ptr %0, ptr %2, align 8, !tbaa !29
  %3 = load ptr, ptr %2, align 8, !tbaa !29
  ret ptr %3
}

; Function Attrs: nounwind uwtable
define internal i32 @cms_set_pkey_param(ptr noundef %0, ptr noundef %1) #0 {
  %3 = alloca i32, align 4
  %4 = alloca ptr, align 8
  %5 = alloca ptr, align 8
  %6 = alloca ptr, align 8
  %7 = alloca i32, align 4
  %8 = alloca i32, align 4
  store ptr %0, ptr %4, align 8, !tbaa !57
  store ptr %1, ptr %5, align 8, !tbaa !29
  call void @llvm.lifetime.start.p0(i64 8, ptr %6) #4
  call void @llvm.lifetime.start.p0(i64 4, ptr %7) #4
  %9 = load ptr, ptr %5, align 8, !tbaa !29
  %10 = call ptr @ossl_check_const_OPENSSL_STRING_sk_type(ptr noundef %9)
  %11 = call i32 @OPENSSL_sk_num(ptr noundef %10)
  %12 = icmp sle i32 %11, 0
  br i1 %12, label %13, label %14

13:                                               ; preds = %2
  store i32 1, ptr %3, align 4
  store i32 1, ptr %8, align 4
  br label %40

14:                                               ; preds = %2
  store i32 0, ptr %7, align 4, !tbaa !4
  br label %15

15:                                               ; preds = %36, %14
  %16 = load i32, ptr %7, align 4, !tbaa !4
  %17 = load ptr, ptr %5, align 8, !tbaa !29
  %18 = call ptr @ossl_check_const_OPENSSL_STRING_sk_type(ptr noundef %17)
  %19 = call i32 @OPENSSL_sk_num(ptr noundef %18)
  %20 = icmp slt i32 %16, %19
  br i1 %20, label %21, label %39

21:                                               ; preds = %15
  %22 = load ptr, ptr %5, align 8, !tbaa !29
  %23 = call ptr @ossl_check_const_OPENSSL_STRING_sk_type(ptr noundef %22)
  %24 = load i32, ptr %7, align 4, !tbaa !4
  %25 = call ptr @OPENSSL_sk_value(ptr noundef %23, i32 noundef %24)
  store ptr %25, ptr %6, align 8, !tbaa !39
  %26 = load ptr, ptr %4, align 8, !tbaa !57
  %27 = load ptr, ptr %6, align 8, !tbaa !39
  %28 = call i32 @pkey_ctrl_string(ptr noundef %26, ptr noundef %27)
  %29 = icmp sle i32 %28, 0
  br i1 %29, label %30, label %35

30:                                               ; preds = %21
  %31 = load ptr, ptr @bio_err, align 8, !tbaa !15
  %32 = load ptr, ptr %6, align 8, !tbaa !39
  %33 = call i32 (ptr, ptr, ...) @BIO_printf(ptr noundef %31, ptr noundef @.str.334, ptr noundef %32)
  %34 = load ptr, ptr @bio_err, align 8, !tbaa !15
  call void @ERR_print_errors(ptr noundef %34)
  store i32 0, ptr %3, align 4
  store i32 1, ptr %8, align 4
  br label %40

35:                                               ; preds = %21
  br label %36

36:                                               ; preds = %35
  %37 = load i32, ptr %7, align 4, !tbaa !4
  %38 = add nsw i32 %37, 1
  store i32 %38, ptr %7, align 4, !tbaa !4
  br label %15, !llvm.loop !76

39:                                               ; preds = %15
  store i32 1, ptr %3, align 4
  store i32 1, ptr %8, align 4
  br label %40

40:                                               ; preds = %39, %30, %13
  call void @llvm.lifetime.end.p0(i64 4, ptr %7) #4
  call void @llvm.lifetime.end.p0(i64 8, ptr %6) #4
  %41 = load i32, ptr %3, align 4
  ret i32 %41
}