; Function Attrs: nounwind uwtable
define internal fastcc range(i32 0, 2) i32 @cms_set_pkey_param(ptr noundef %0, ptr noundef %1) unnamed_addr #0 {
  %3 = tail call i32 @OPENSSL_sk_num(ptr noundef %1) #3
  %4 = icmp slt i32 %3, 1
  br i1 %4, label %.loopexit, label %.preheader

.preheader:                                       ; preds = %2
  %5 = tail call i32 @OPENSSL_sk_num(ptr noundef %1) #3
  %6 = icmp sgt i32 %5, 0
  br i1 %6, label %.lr.ph, label %.loopexit

7:                                                ; preds = %.lr.ph
  %8 = add nuw nsw i32 %.010, 1
  %9 = tail call i32 @OPENSSL_sk_num(ptr noundef %1) #3
  %10 = icmp slt i32 %8, %9
  br i1 %10, label %.lr.ph, label %.loopexit, !llvm.loop !38

.lr.ph:                                           ; preds = %.preheader, %7
  %.010 = phi i32 [ %8, %7 ], [ 0, %.preheader ]
  %11 = tail call ptr @OPENSSL_sk_value(ptr noundef %1, i32 noundef %.010) #3
  %12 = tail call i32 @pkey_ctrl_string(ptr noundef %0, ptr noundef %11) #3
  %13 = icmp slt i32 %12, 1
  br i1 %13, label %14, label %7

14:                                               ; preds = %.lr.ph
  %15 = load ptr, ptr @bio_err, align 8, !tbaa !4
  %16 = tail call i32 (ptr, ptr, ...) @BIO_printf(ptr noundef %15, ptr noundef nonnull @.str.334, ptr noundef %11) #3
  %17 = load ptr, ptr @bio_err, align 8, !tbaa !4
  tail call void @ERR_print_errors(ptr noundef %17) #3
  br label %.loopexit

.loopexit:                                        ; preds = %7, %.preheader, %2, %14
  %.09 = phi i32 [ 0, %14 ], [ 1, %2 ], [ 1, %.preheader ], [ 1, %7 ]
  ret i32 %.09
}